target datalayout = "e-m:e-p270:32:32-p271:32:32-p272:64:64-i64:64-i128:128-f80:128-n8:16:32:64-S128"
target triple = "x86_64-unknown-linux-gnu"

%"class.node::quic::SessionTicket::AppData" = type { i8, ptr }
%struct.ngtcp2_crypto_conn_ref = type { ptr, ptr }

@_ZN4node4quic13SessionTicket7AppDataC1EP6ssl_st = dso_local unnamed_addr alias void (ptr, ptr), ptr @_ZN4node4quic13SessionTicket7AppDataC2EP6ssl_st

; Function Attrs: mustprogress nounwind uwtable
define internal noundef ptr @_ZN4node4quic12_GLOBAL__N_116GetAppDataSourceEP6ssl_st(ptr noundef %ssl) #4 {
entry:
  %retval = alloca ptr, align 8
  %ssl.addr = alloca ptr, align 8
  %ref = alloca ptr, align 8
  store ptr %ssl, ptr %ssl.addr, align 8
  %0 = load ptr, ptr %ssl.addr, align 8
  %call = call ptr @SSL_get_ex_data(ptr noundef %0, i32 noundef 0)
  store ptr %call, ptr %ref, align 8
  %1 = load ptr, ptr %ref, align 8
  %cmp = icmp ne ptr %1, null
  br i1 %cmp, label %land.lhs.true, label %if.end

land.lhs.true:                                    ; preds = %entry
  %2 = load ptr, ptr %ref, align 8
  %user_data = getelementptr inbounds %struct.ngtcp2_crypto_conn_ref, ptr %2, i32 0, i32 1
  %3 = load ptr, ptr %user_data, align 8
  %cmp1 = icmp ne ptr %3, null
  br i1 %cmp1, label %if.then, label %if.end

if.then:                                          ; preds = %land.lhs.true
  %4 = load ptr, ptr %ref, align 8
  %user_data2 = getelementptr inbounds %struct.ngtcp2_crypto_conn_ref, ptr %4, i32 0, i32 1
  %5 = load ptr, ptr %user_data2, align 8
  store ptr %5, ptr %retval, align 8
  br label %return

if.end:                                           ; preds = %land.lhs.true, %entry
  store ptr null, ptr %retval, align 8
  br label %return

return:                                           ; preds = %if.end, %if.then
  %6 = load ptr, ptr %retval, align 8
  ret ptr %6
}

; Function Attrs: mustprogress nounwind uwtable
define dso_local noundef i32 @_ZN4node4quic13SessionTicket7AppData7ExtractEP6ssl_st(ptr noundef %ssl) #4 align 2 {
entry:
  %retval = alloca i32, align 4
  %ssl.addr = alloca ptr, align 8
  %source = alloca ptr, align 8
  %app_data = alloca %"class.node::quic::SessionTicket::AppData", align 8
  store ptr %ssl, ptr %ssl.addr, align 8
  %0 = load ptr, ptr %ssl.addr, align 8
  %call = call noundef ptr @_ZN4node4quic12_GLOBAL__N_116GetAppDataSourceEP6ssl_st(ptr noundef %0)
  store ptr %call, ptr %source, align 8
  %1 = load ptr, ptr %source, align 8
  %cmp = icmp ne ptr %1, null
  br i1 %cmp, label %if.then, label %if.end

if.then:                                          ; preds = %entry
  %2 = load ptr, ptr %ssl.addr, align 8
  call void @_ZN4node4quic13SessionTicket7AppDataC1EP6ssl_st(ptr noundef nonnull align 8 dereferenceable(16) %app_data, ptr noundef %2)
  %3 = load ptr, ptr %source, align 8
  %vtable = load ptr, ptr %3, align 8
  %vfn = getelementptr inbounds ptr, ptr %vtable, i64 1
  %4 = load ptr, ptr %vfn, align 8
  %call1 = call noundef i32 %4(ptr noundef nonnull align 8 dereferenceable(8) %3, ptr noundef nonnull align 8 dereferenceable(16) %app_data, i32 noundef 0)
  store i32 %call1, ptr %retval, align 4
  br label %return

if.end:                                           ; preds = %entry
  store i32 1, ptr %retval, align 4
  br label %return

return:                                           ; preds = %if.end, %if.then
  %5 = load i32, ptr %retval, align 4
  ret i32 %5
}

; Function Attrs: mustprogress nounwind uwtable
define dso_local noundef i32 @_ZN4node4quic13SessionTicket17DecryptedCallbackEP6ssl_stP14ssl_session_stPKhmiPv(ptr noundef %ssl, ptr noundef %session, ptr noundef %keyname, i64 noundef %keyname_len, i32 noundef %status, ptr noundef %arg) #4 align 2 {
entry:
  %retval = alloca i32, align 4
  %ssl.addr = alloca ptr, align 8
  %session.addr = alloca ptr, align 8
  %keyname.addr = alloca ptr, align 8
  %keyname_len.addr = alloca i64, align 8
  %status.addr = alloca i32, align 4
  %arg.addr = alloca ptr, align 8
  store ptr %ssl, ptr %ssl.addr, align 8
  store ptr %session, ptr %session.addr, align 8
  store ptr %keyname, ptr %keyname.addr, align 8
  store i64 %keyname_len, ptr %keyname_len.addr, align 8
  store i32 %status, ptr %status.addr, align 4
  store ptr %arg, ptr %arg.addr, align 8
  %0 = load i32, ptr %status.addr, align 4
  switch i32 %0, label %sw.default [
    i32 3, label %sw.bb
    i32 4, label %sw.bb1
    i32 6, label %sw.bb2
    i32 5, label %sw.bb3
  ]

sw.default:                                       ; preds = %entry
  store i32 1, ptr %retval, align 4
  br label %return

sw.bb:                                            ; preds = %entry
  br label %sw.bb1

sw.bb1:                                           ; preds = %sw.bb, %entry
  store i32 2, ptr %retval, align 4
  br label %return

sw.bb2:                                           ; preds = %entry
  br label %sw.bb3

sw.bb3:                                           ; preds = %sw.bb2, %entry
  %1 = load ptr, ptr %ssl.addr, align 8
  %call = call noundef i32 @_ZN4node4quic13SessionTicket7AppData7ExtractEP6ssl_st(ptr noundef %1)
  store i32 %call, ptr %retval, align 4
  br label %return

return:                                           ; preds = %sw.bb3, %sw.bb1, %sw.default
  %2 = load i32, ptr %retval, align 4
  ret i32 %2
}