; Function Attrs: mustprogress nounwind uwtable
define dso_local noundef i32 @_ZN4node4quic13SessionTicket17DecryptedCallbackEP6ssl_stP14ssl_session_stPKhmiPv(ptr noundef %ssl, ptr nocapture noundef readnone %session, ptr nocapture noundef readnone %keyname, i64 noundef %keyname_len, i32 noundef %status, ptr nocapture noundef readnone %arg) local_unnamed_addr #4 align 2 {
entry:
  %app_data.i = alloca %"class.node::quic::SessionTicket::AppData", align 8
  switch i32 %status, label %return [
    i32 3, label %sw.bb1
    i32 4, label %sw.bb1
    i32 6, label %sw.bb3
    i32 5, label %sw.bb3
  ]

sw.bb1:                                           ; preds = %entry, %entry
  br label %return

sw.bb3:                                           ; preds = %entry, %entry
  call void @llvm.lifetime.start.p0(i64 16, ptr nonnull %app_data.i)
  %call.i.i = tail call ptr @SSL_get_ex_data(ptr noundef %ssl, i32 noundef 0) #17
  %cmp.not.i.i = icmp eq ptr %call.i.i, null
  br i1 %cmp.not.i.i, label %_ZN4node4quic13SessionTicket7AppData7ExtractEP6ssl_st.exit, label %land.lhs.true.i.i

land.lhs.true.i.i:                                ; preds = %sw.bb3
  %user_data.i.i = getelementptr inbounds i8, ptr %call.i.i, i64 8
  %0 = load ptr, ptr %user_data.i.i, align 8
  %cmp1.not.i.i = icmp eq ptr %0, null
  br i1 %cmp1.not.i.i, label %_ZN4node4quic13SessionTicket7AppData7ExtractEP6ssl_st.exit, label %if.then.i

if.then.i:                                        ; preds = %land.lhs.true.i.i
  store i8 0, ptr %app_data.i, align 8
  %ssl_.i.i = getelementptr inbounds i8, ptr %app_data.i, i64 8
  store ptr %ssl, ptr %ssl_.i.i, align 8
  %vtable.i = load ptr, ptr %0, align 8
  %vfn.i = getelementptr inbounds i8, ptr %vtable.i, i64 8
  %1 = load ptr, ptr %vfn.i, align 8
  %call1.i = call noundef i32 %1(ptr noundef nonnull align 8 dereferenceable(8) %0, ptr noundef nonnull align 8 dereferenceable(16) %app_data.i, i32 noundef 0) #17
  br label %_ZN4node4quic13SessionTicket7AppData7ExtractEP6ssl_st.exit

_ZN4node4quic13SessionTicket7AppData7ExtractEP6ssl_st.exit: ; preds = %sw.bb3, %land.lhs.true.i.i, %if.then.i
  %retval.0.i = phi i32 [ %call1.i, %if.then.i ], [ 1, %sw.bb3 ], [ 1, %land.lhs.true.i.i ]
  call void @llvm.lifetime.end.p0(i64 16, ptr nonnull %app_data.i)
  br label %return

return:                                           ; preds = %entry, %_ZN4node4quic13SessionTicket7AppData7ExtractEP6ssl_st.exit, %sw.bb1
  %retval.0 = phi i32 [ %retval.0.i, %_ZN4node4quic13SessionTicket7AppData7ExtractEP6ssl_st.exit ], [ 2, %sw.bb1 ], [ 1, %entry ]
  ret i32 %retval.0
}